target datalayout = "e-m:e-p270:32:32-p271:32:32-p272:64:64-i64:64-i128:128-f80:128-n8:16:32:64-S128"
target triple = "x86_64-pc-linux-gnu"

%struct._zval_struct = type { %union._zend_value, %union.anon, %union.anon.2 }
%union._zend_value = type { i64 }
%union.anon = type { i32 }
%union.anon.2 = type { i32 }
%struct._zend_executor_globals = type { %struct._zval_struct, %struct._zval_struct, [32 x ptr], ptr, ptr, %struct._zend_array, %struct._zend_array, ptr, i32, i32, ptr, ptr, ptr, ptr, ptr, ptr, i64, ptr, ptr, i32, i32, i64, i32, i32, i32, i8, i8, %struct.zend_atomic_bool_s, %struct.zend_atomic_bool_s, ptr, i64, ptr, ptr, %struct._zend_array, %struct._zend_array, i32, i8, %struct._zval_struct, %struct._zval_struct, %struct._zend_stack, %struct._zend_stack, %struct._zend_stack, ptr, i32, i32, i64, ptr, ptr, ptr, %struct._zend_objects_store, ptr, ptr, ptr, [3 x %struct._zend_op], ptr, i8, i8, i64, i32, i32, ptr, [16 x %struct._HashTableIterator], ptr, %union._zend_function, %struct._zend_op, %struct._zend_array, i64, %struct.zend_get_gc_buffer, ptr, ptr, ptr, i64, i8, i32, ptr, ptr, i64, %struct._zend_call_stack, i64, i64, [6 x ptr] }
%struct.zend_atomic_bool_s = type { i8 }
%struct._zend_stack = type { i32, i32, i32, ptr }
%struct._zend_objects_store = type { ptr, i32, i32, i32 }
%struct._HashTableIterator = type { ptr, i32, i32 }
%union._zend_function = type { %struct._zend_op_array }
%struct._zend_op_array = type { i8, [3 x i8], i32, ptr, ptr, ptr, i32, i32, ptr, ptr, ptr, ptr, i32, i32, i32, i32, ptr, ptr, ptr, ptr, ptr, i32, i32, ptr, ptr, ptr, i32, i32, i32, i32, ptr, ptr, [6 x ptr] }
%struct._zend_op = type { ptr, %union._znode_op, %union._znode_op, %union._znode_op, i32, i32, i8, i8, i8, i8 }
%union._znode_op = type { i32 }
%struct._zend_array = type { %struct._zend_refcounted_h, %union.anon.4, i32, %union.anon.6, i32, i32, i32, i32, i64, ptr }
%struct._zend_refcounted_h = type { i32, %union.anon.3 }
%union.anon.3 = type { i32 }
%union.anon.4 = type { i32 }
%union.anon.6 = type { ptr }
%struct.zend_get_gc_buffer = type { ptr, ptr, ptr }
%struct._zend_call_stack = type { ptr, i64 }
%struct.itimerval = type { %struct.timeval, %struct.timeval }
%struct.timeval = type { i64, i64 }

@executor_globals = external global %struct._zend_executor_globals, align 8

; Function Attrs: nounwind uwtable
define internal void @zend_set_timeout_ex(i64 noundef %0, i1 noundef zeroext %1) #0 {
  %3 = alloca i64, align 8
  %4 = alloca i8, align 1
  %5 = alloca %struct.itimerval, align 8
  %6 = alloca i32, align 4
  store i64 %0, ptr %3, align 8
  %7 = zext i1 %1 to i8
  store i8 %7, ptr %4, align 1
  %8 = load i64, ptr %3, align 8
  %9 = icmp ne i64 %8, 0
  br i1 %9, label %10, label %21

10:                                               ; preds = %2
  %11 = load i64, ptr %3, align 8
  %12 = getelementptr inbounds %struct.itimerval, ptr %5, i32 0, i32 1
  %13 = getelementptr inbounds %struct.timeval, ptr %12, i32 0, i32 0
  store i64 %11, ptr %13, align 8
  %14 = getelementptr inbounds %struct.itimerval, ptr %5, i32 0, i32 0
  %15 = getelementptr inbounds %struct.timeval, ptr %14, i32 0, i32 1
  store i64 0, ptr %15, align 8
  %16 = getelementptr inbounds %struct.itimerval, ptr %5, i32 0, i32 0
  %17 = getelementptr inbounds %struct.timeval, ptr %16, i32 0, i32 0
  store i64 0, ptr %17, align 8
  %18 = getelementptr inbounds %struct.itimerval, ptr %5, i32 0, i32 1
  %19 = getelementptr inbounds %struct.timeval, ptr %18, i32 0, i32 1
  store i64 0, ptr %19, align 8
  %20 = call i32 @setitimer(i32 noundef 2, ptr noundef %5, ptr noundef null) #14
  br label %21

21:                                               ; preds = %10, %2
  store i32 27, ptr %6, align 4
  %22 = load i8, ptr %4, align 1
  %23 = trunc i8 %22 to i1
  br i1 %23, label %24, label %26

24:                                               ; preds = %21
  %25 = load i32, ptr %6, align 4
  call void @zend_signal(i32 noundef %25, ptr noundef @zend_timeout_handler)
  br label %26

26:                                               ; preds = %24, %21
  ret void
}

; Function Attrs: nounwind uwtable
define void @zend_set_timeout(i64 noundef %0, i1 noundef zeroext %1) #0 {
  %3 = alloca ptr, align 8
  %4 = alloca i8, align 1
  %5 = alloca i64, align 8
  %6 = alloca i8, align 1
  store i64 %0, ptr %5, align 8
  %7 = zext i1 %1 to i8
  store i8 %7, ptr %6, align 1
  %8 = load i64, ptr %5, align 8
  store i64 %8, ptr getelementptr inbounds (%struct._zend_executor_globals, ptr @executor_globals, i32 0, i32 45), align 8
  %9 = load i64, ptr %5, align 8
  %10 = load i8, ptr %6, align 1
  %11 = trunc i8 %10 to i1
  call void @zend_set_timeout_ex(i64 noundef %9, i1 noundef zeroext %11)
  store ptr getelementptr inbounds (%struct._zend_executor_globals, ptr @executor_globals, i32 0, i32 28), ptr %3, align 8
  store i8 0, ptr %4, align 1
  fence seq_cst
  %12 = load i8, ptr %4, align 1
  %13 = trunc i8 %12 to i1
  %14 = zext i1 %13 to i8
  %15 = load ptr, ptr %3, align 8
  store volatile i8 %14, ptr %15, align 1
  fence seq_cst
  ret void
}