; Function Attrs: nounwind uwtable
define void @zend_set_timeout(i64 noundef %0, i1 noundef zeroext %1) local_unnamed_addr #0 {
  %3 = alloca %struct.itimerval, align 8
  store i64 %0, ptr getelementptr inbounds (%struct._zend_executor_globals, ptr @executor_globals, i64 0, i32 45), align 8
  call void @llvm.lifetime.start.p0(i64 32, ptr nonnull %3)
  %.not.i = icmp eq i64 %0, 0
  br i1 %.not.i, label %8, label %4

4:                                                ; preds = %2
  %5 = getelementptr inbounds i8, ptr %3, i64 16
  store i64 %0, ptr %5, align 8
  %6 = getelementptr inbounds i8, ptr %3, i64 24
  store i64 0, ptr %6, align 8
  call void @llvm.memset.p0.i64(ptr noundef nonnull align 8 dereferenceable(16) %3, i8 0, i64 16, i1 false)
  %7 = call i32 @setitimer(i32 noundef 2, ptr noundef nonnull %3, ptr noundef null) #24
  br label %8

8:                                                ; preds = %4, %2
  br i1 %1, label %9, label %zend_set_timeout_ex.exit

9:                                                ; preds = %8
  tail call void @zend_signal(i32 noundef 27, ptr noundef nonnull @zend_timeout_handler) #24
  br label %zend_set_timeout_ex.exit

zend_set_timeout_ex.exit:                         ; preds = %8, %9
  call void @llvm.lifetime.end.p0(i64 32, ptr nonnull %3)
  fence seq_cst
  store volatile i8 0, ptr getelementptr inbounds (%struct._zend_executor_globals, ptr @executor_globals, i64 0, i32 28), align 1
  fence seq_cst
  ret void
}